; Function Attrs: nounwind uwtable
define noalias nonnull ptr @l_Lean_rewriteManualLinksCore_rw___lambda__1(ptr noundef %0, ptr noundef readnone captures(none) %1) local_unnamed_addr #0 {
  %3 = load ptr, ptr @l_Lean_rewriteManualLinksCore_rw___lambda__1___closed__1, align 8, !tbaa !12
  %4 = tail call ptr @lean_string_append(ptr noundef %3, ptr noundef %0) #4
  %5 = load ptr, ptr @l_Lean_rewriteManualLinksCore_rw___lambda__1___closed__2, align 8, !tbaa !12
  %6 = tail call ptr @lean_string_append(ptr noundef %4, ptr noundef %5) #4
  tail call void @lean_inc_heartbeat() #4
  %7 = tail call noalias ptr @mi_malloc_small(i64 noundef 16) #4
  %8 = icmp eq ptr %7, null
  br i1 %8, label %9, label %lean_alloc_ctor.exit

9:                                                ; preds = %2
  tail call void @lean_internal_panic_out_of_memory() #5
  unreachable

lean_alloc_ctor.exit:                             ; preds = %2
  %10 = getelementptr inbounds nuw i8, ptr %7, i64 4
  store i32 1, ptr %7, align 4, !tbaa !8
  store i32 16842768, ptr %10, align 4
  %11 = getelementptr inbounds nuw i8, ptr %7, i64 8
  store ptr %6, ptr %11, align 8, !tbaa !12
  ret ptr %7
}